target datalayout = "e-m:e-p270:32:32-p271:32:32-p272:64:64-i64:64-i128:128-f80:128-n8:16:32:64-S128"
target triple = "x86_64-pc-linux-gnu"

%struct.knx_keyring_ia_keys = type { ptr, i16, [16 x i8] }

@.str.3 = private unnamed_addr constant [3 x i8] c"%s\00", align 1
@knx_keyring_ia_keys = hidden global ptr null, align 8
@.str.20 = private unnamed_addr constant [6 x i8] c" %02X\00", align 1
@.str.25 = private unnamed_addr constant [16 x i8] c"IA %u.%u.%u key\00", align 1

; Function Attrs: nounwind null_pointer_is_valid sspstrong uwtable
define internal void @decrypt_key(ptr noundef %0, ptr noundef %1, ptr noundef %2) #6 {
  %4 = alloca ptr, align 8
  %5 = alloca ptr, align 8
  %6 = alloca ptr, align 8
  store ptr %0, ptr %4, align 8
  store ptr %1, ptr %5, align 8
  store ptr %2, ptr %6, align 8
  ret void
}

; Function Attrs: alwaysinline nounwind
define internal ptr @memcpy.inline(ptr noalias %0, ptr noalias %1, i64 %2) #2 {
  %4 = alloca ptr, align 8
  %5 = alloca ptr, align 8
  %6 = alloca i64, align 8
  store ptr %0, ptr %4, align 8
  store ptr %1, ptr %5, align 8
  store i64 %2, ptr %6, align 8
  %7 = load ptr, ptr %4, align 8
  %8 = load ptr, ptr %5, align 8
  %9 = load i64, ptr %6, align 8
  %10 = load ptr, ptr %4, align 8
  %11 = call i64 @llvm.objectsize.i64.p0(ptr %10, i1 false, i1 true, i1 true)
  %12 = call ptr @__memcpy_chk(ptr noundef %7, ptr noundef %8, i64 noundef %9, i64 noundef %11) #10
  ret ptr %12
}

; Function Attrs: null_pointer_is_valid sspstrong uwtable
define internal void @fprintf_hex(ptr noundef %0, ptr noundef %1, i8 noundef zeroext %2) #0 {
  %4 = alloca ptr, align 8
  %5 = alloca ptr, align 8
  %6 = alloca i8, align 1
  store ptr %0, ptr %4, align 8
  store ptr %1, ptr %5, align 8
  store i8 %2, ptr %6, align 1
  br label %7

7:                                                ; preds = %17, %3
  %8 = load i8, ptr %6, align 1
  %9 = icmp ne i8 %8, 0
  br i1 %9, label %10, label %20

10:                                               ; preds = %7
  %11 = load ptr, ptr %4, align 8
  %12 = load ptr, ptr %5, align 8
  %13 = getelementptr i8, ptr %12, i32 1
  store ptr %13, ptr %5, align 8
  %14 = load i8, ptr %12, align 1
  %15 = zext i8 %14 to i32
  %16 = call i32 (ptr, i32, ptr, ...) @__fprintf_chk(ptr noundef %11, i32 noundef 2, ptr noundef @.str.20, i32 noundef %15)
  br label %17

17:                                               ; preds = %10
  %18 = load i8, ptr %6, align 1
  %19 = add i8 %18, -1
  store i8 %19, ptr %6, align 1
  br label %7, !llvm.loop !31

20:                                               ; preds = %7
  %21 = load ptr, ptr %4, align 8
  %22 = call i32 @fputc(i32 noundef 10, ptr noundef %21)
  ret void
}

; Function Attrs: null_pointer_is_valid sspstrong uwtable
define internal void @decode_and_decrypt_key(ptr noundef %0, ptr noundef %1, ptr noundef %2, ptr noundef %3) #0 {
  %5 = alloca ptr, align 8
  %6 = alloca ptr, align 8
  %7 = alloca ptr, align 8
  %8 = alloca ptr, align 8
  %9 = alloca i64, align 8
  store ptr %0, ptr %5, align 8
  store ptr %1, ptr %6, align 8
  store ptr %2, ptr %7, align 8
  store ptr %3, ptr %8, align 8
  call void @llvm.lifetime.start.p0(i64 8, ptr %9) #10
  %10 = load ptr, ptr %5, align 8
  %11 = load ptr, ptr %5, align 8
  %12 = call i64 @llvm.objectsize.i64.p0(ptr %11, i1 false, i1 true, i1 true)
  %13 = load ptr, ptr %6, align 8
  %14 = call i32 (ptr, i64, i32, i64, ptr, ...) @__snprintf_chk(ptr noundef %10, i64 noundef 25, i32 noundef 2, i64 noundef %12, ptr noundef @.str.3, ptr noundef %13)
  %15 = load ptr, ptr %5, align 8
  %16 = call ptr @g_base64_decode_inplace(ptr noundef %15, ptr noundef %9)
  %17 = load ptr, ptr %5, align 8
  %18 = load ptr, ptr %7, align 8
  %19 = load ptr, ptr %8, align 8
  call void @decrypt_key(ptr noundef %17, ptr noundef %18, ptr noundef %19)
  call void @llvm.lifetime.end.p0(i64 8, ptr %9) #10
  ret void
}

; Function Attrs: null_pointer_is_valid sspstrong uwtable
define internal void @add_ia_key(i16 noundef zeroext %0, ptr noundef %1, ptr noundef %2, ptr noundef %3, ptr noundef %4) #0 {
  %6 = alloca i16, align 2
  %7 = alloca ptr, align 8
  %8 = alloca ptr, align 8
  %9 = alloca ptr, align 8
  %10 = alloca ptr, align 8
  %11 = alloca i32, align 4
  %12 = alloca [25 x i8], align 16
  %13 = alloca ptr, align 8
  %14 = alloca ptr, align 8
  %15 = alloca i32, align 4
  store i16 %0, ptr %6, align 2
  store ptr %1, ptr %7, align 8
  store ptr %2, ptr %8, align 8
  store ptr %3, ptr %9, align 8
  store ptr %4, ptr %10, align 8
  call void @llvm.lifetime.start.p0(i64 4, ptr %11) #10
  %16 = load ptr, ptr %7, align 8
  %17 = call i64 @strlen(ptr noundef %16) #13
  %18 = trunc i64 %17 to i32
  store i32 %18, ptr %11, align 4
  %19 = load i32, ptr %11, align 4
  %20 = icmp eq i32 %19, 24
  br i1 %20, label %21, label %91

21:                                               ; preds = %5
  call void @llvm.lifetime.start.p0(i64 25, ptr %12) #10
  call void @llvm.lifetime.start.p0(i64 8, ptr %13) #10
  call void @llvm.lifetime.start.p0(i64 8, ptr %14) #10
  %22 = getelementptr inbounds [25 x i8], ptr %12, i64 0, i64 0
  %23 = load ptr, ptr %7, align 8
  %24 = load ptr, ptr %8, align 8
  %25 = load ptr, ptr %9, align 8
  call void @decode_and_decrypt_key(ptr noundef %22, ptr noundef %23, ptr noundef %24, ptr noundef %25)
  store ptr @knx_keyring_ia_keys, ptr %13, align 8
  br label %26

26:                                               ; preds = %47, %21
  %27 = load ptr, ptr %13, align 8
  %28 = load ptr, ptr %27, align 8
  store ptr %28, ptr %14, align 8
  %29 = icmp ne ptr %28, null
  br i1 %29, label %30, label %50

30:                                               ; preds = %26
  %31 = load ptr, ptr %14, align 8
  %32 = getelementptr inbounds nuw %struct.knx_keyring_ia_keys, ptr %31, i32 0, i32 1
  %33 = load i16, ptr %32, align 8
  %34 = zext i16 %33 to i32
  %35 = load i16, ptr %6, align 2
  %36 = zext i16 %35 to i32
  %37 = icmp eq i32 %34, %36
  br i1 %37, label %38, label %47

38:                                               ; preds = %30
  %39 = load ptr, ptr %14, align 8
  %40 = getelementptr inbounds nuw %struct.knx_keyring_ia_keys, ptr %39, i32 0, i32 2
  %41 = getelementptr inbounds [16 x i8], ptr %40, i64 0, i64 0
  %42 = getelementptr inbounds [25 x i8], ptr %12, i64 0, i64 0
  %43 = call i32 @memcmp(ptr noundef %41, ptr noundef %42, i64 noundef 16) #13
  %44 = icmp eq i32 %43, 0
  br i1 %44, label %45, label %46

45:                                               ; preds = %38
  store i32 1, ptr %15, align 4
  br label %88

46:                                               ; preds = %38
  br label %47

47:                                               ; preds = %46, %30
  %48 = load ptr, ptr %14, align 8
  %49 = getelementptr inbounds nuw %struct.knx_keyring_ia_keys, ptr %48, i32 0, i32 0
  store ptr %49, ptr %13, align 8
  br label %26, !llvm.loop !29

50:                                               ; preds = %26
  %51 = load ptr, ptr %10, align 8
  %52 = icmp ne ptr %51, null
  br i1 %52, label %53, label %69

53:                                               ; preds = %50
  %54 = load ptr, ptr %10, align 8
  %55 = load i16, ptr %6, align 2
  %56 = zext i16 %55 to i32
  %57 = ashr i32 %56, 12
  %58 = and i32 %57, 15
  %59 = load i16, ptr %6, align 2
  %60 = zext i16 %59 to i32
  %61 = ashr i32 %60, 8
  %62 = and i32 %61, 15
  %63 = load i16, ptr %6, align 2
  %64 = zext i16 %63 to i32
  %65 = and i32 %64, 255
  %66 = call i32 (ptr, i32, ptr, ...) @__fprintf_chk(ptr noundef %54, i32 noundef 2, ptr noundef @.str.25, i32 noundef %58, i32 noundef %62, i32 noundef %65)
  %67 = load ptr, ptr %10, align 8
  %68 = getelementptr inbounds [25 x i8], ptr %12, i64 0, i64 0
  call void @fprintf_hex(ptr noundef %67, ptr noundef %68, i8 noundef zeroext 16)
  br label %69

69:                                               ; preds = %53, %50
  %70 = call ptr @wmem_epan_scope()
  %71 = call noalias ptr @wmem_alloc(ptr noundef %70, i64 noundef 32) #12
  store ptr %71, ptr %14, align 8
  %72 = load ptr, ptr %14, align 8
  %73 = icmp ne ptr %72, null
  br i1 %73, label %74, label %87

74:                                               ; preds = %69
  %75 = load ptr, ptr %14, align 8
  %76 = getelementptr inbounds nuw %struct.knx_keyring_ia_keys, ptr %75, i32 0, i32 0
  store ptr null, ptr %76, align 8
  %77 = load i16, ptr %6, align 2
  %78 = load ptr, ptr %14, align 8
  %79 = getelementptr inbounds nuw %struct.knx_keyring_ia_keys, ptr %78, i32 0, i32 1
  store i16 %77, ptr %79, align 8
  %80 = load ptr, ptr %14, align 8
  %81 = getelementptr inbounds nuw %struct.knx_keyring_ia_keys, ptr %80, i32 0, i32 2
  %82 = getelementptr inbounds [16 x i8], ptr %81, i64 0, i64 0
  %83 = getelementptr inbounds [25 x i8], ptr %12, i64 0, i64 0
  %84 = call ptr @memcpy.inline(ptr noundef %82, ptr noundef %83, i64 noundef 16) #10
  %85 = load ptr, ptr %14, align 8
  %86 = load ptr, ptr %13, align 8
  store ptr %85, ptr %86, align 8
  br label %87

87:                                               ; preds = %74, %69
  store i32 0, ptr %15, align 4
  br label %88

88:                                               ; preds = %87, %45
  call void @llvm.lifetime.end.p0(i64 8, ptr %14) #10
  call void @llvm.lifetime.end.p0(i64 8, ptr %13) #10
  call void @llvm.lifetime.end.p0(i64 25, ptr %12) #10
  %89 = load i32, ptr %15, align 4
  switch i32 %89, label %92 [
    i32 0, label %90
  ]

90:                                               ; preds = %88
  br label %91

91:                                               ; preds = %90, %5
  store i32 0, ptr %15, align 4
  br label %92

92:                                               ; preds = %91, %88
  call void @llvm.lifetime.end.p0(i64 4, ptr %11) #10
  %93 = load i32, ptr %15, align 4
  switch i32 %93, label %95 [
    i32 0, label %94
    i32 1, label %94
  ]

94:                                               ; preds = %92, %92
  ret void

95:                                               ; preds = %92
  unreachable
}